target datalayout = "e-m:e-p270:32:32-p271:32:32-p272:64:64-i64:64-i128:128-f80:128-n8:16:32:64-S128"
target triple = "x86_64-pc-linux-gnu"

%struct.cli_events = type { ptr, %struct.cli_event, i64, i32, i32 }
%struct.cli_event = type { ptr, %union.ev_val, i32, i16 }
%union.ev_val = type { ptr }

@.str.1 = private unnamed_addr constant [43 x i8] c"events: out of memory allocating %u bytes\0A\00", align 1
@.str.8 = private unnamed_addr constant [12 x i8] c"events: %s\0A\00", align 1
@.str.18 = private unnamed_addr constant [22 x i8] c"event id out of range\00", align 1
@.str.19 = private unnamed_addr constant [1 x i8] zeroinitializer, align 1

; Function Attrs: nounwind uwtable
define void @cli_event_error_oom(ptr noundef %0, i32 noundef %1) #0 {
  %3 = alloca ptr, align 8
  %4 = alloca i32, align 4
  store ptr %0, ptr %3, align 8, !tbaa !7
  store i32 %1, ptr %4, align 4, !tbaa !3
  %5 = load ptr, ptr %3, align 8, !tbaa !7
  %6 = icmp ne ptr %5, null
  br i1 %6, label %8, label %7

7:                                                ; preds = %2
  br label %23

8:                                                ; preds = %2
  %9 = load i32, ptr %4, align 4, !tbaa !3
  %10 = zext i32 %9 to i64
  %11 = load ptr, ptr %3, align 8, !tbaa !7
  %12 = getelementptr inbounds nuw %struct.cli_events, ptr %11, i32 0, i32 2
  %13 = load i64, ptr %12, align 8, !tbaa !18
  %14 = add i64 %13, %10
  store i64 %14, ptr %12, align 8, !tbaa !18
  %15 = load ptr, ptr %3, align 8, !tbaa !7
  %16 = getelementptr inbounds nuw %struct.cli_events, ptr %15, i32 0, i32 4
  %17 = load i32, ptr %16, align 4, !tbaa !19
  %18 = add i32 %17, 1
  store i32 %18, ptr %16, align 4, !tbaa !19
  %19 = load i32, ptr %4, align 4, !tbaa !3
  %20 = icmp ne i32 %19, 0
  br i1 %20, label %21, label %23

21:                                               ; preds = %8
  %22 = load i32, ptr %4, align 4, !tbaa !3
  call void (ptr, ...) @cli_errmsg(ptr noundef @.str.1, i32 noundef %22)
  br label %23

23:                                               ; preds = %7, %21, %8
  ret void
}

; Function Attrs: inlinehint nounwind uwtable
define internal void @ev_chain(ptr noundef %0, ptr noundef %1, ptr noundef %2) #5 {
  %4 = alloca ptr, align 8
  %5 = alloca ptr, align 8
  %6 = alloca ptr, align 8
  %7 = alloca ptr, align 8
  %8 = alloca i32, align 4
  %9 = alloca i32, align 4
  store ptr %0, ptr %4, align 8, !tbaa !7
  store ptr %1, ptr %5, align 8, !tbaa !21
  store ptr %2, ptr %6, align 8, !tbaa !26
  call void @llvm.lifetime.start.p0(i64 8, ptr %7) #8
  call void @llvm.lifetime.start.p0(i64 4, ptr %8) #8
  %10 = load ptr, ptr %5, align 8, !tbaa !21
  %11 = getelementptr inbounds nuw %struct.cli_event, ptr %10, i32 0, i32 2
  %12 = load i32, ptr %11, align 8, !tbaa !25
  %13 = add i32 %12, 1
  %14 = zext i32 %13 to i64
  %15 = mul i64 8, %14
  %16 = trunc i64 %15 to i32
  store i32 %16, ptr %8, align 4, !tbaa !3
  %17 = load ptr, ptr %5, align 8, !tbaa !21
  %18 = getelementptr inbounds nuw %struct.cli_event, ptr %17, i32 0, i32 1
  %19 = load ptr, ptr %18, align 8, !tbaa !23
  %20 = load i32, ptr %8, align 4, !tbaa !3
  %21 = zext i32 %20 to i64
  %22 = call ptr @cli_safer_realloc(ptr noundef %19, i64 noundef %21)
  store ptr %22, ptr %7, align 8, !tbaa !26
  %23 = load ptr, ptr %7, align 8, !tbaa !26
  %24 = icmp ne ptr %23, null
  br i1 %24, label %28, label %25

25:                                               ; preds = %3
  %26 = load ptr, ptr %4, align 8, !tbaa !7
  %27 = load i32, ptr %8, align 4, !tbaa !3
  call void @cli_event_error_oom(ptr noundef %26, i32 noundef %27)
  store i32 1, ptr %9, align 4
  br label %45

28:                                               ; preds = %3
  %29 = load ptr, ptr %7, align 8, !tbaa !26
  %30 = load ptr, ptr %5, align 8, !tbaa !21
  %31 = getelementptr inbounds nuw %struct.cli_event, ptr %30, i32 0, i32 1
  store ptr %29, ptr %31, align 8, !tbaa !23
  %32 = load ptr, ptr %5, align 8, !tbaa !21
  %33 = getelementptr inbounds nuw %struct.cli_event, ptr %32, i32 0, i32 1
  %34 = load ptr, ptr %33, align 8, !tbaa !23
  %35 = load ptr, ptr %5, align 8, !tbaa !21
  %36 = getelementptr inbounds nuw %struct.cli_event, ptr %35, i32 0, i32 2
  %37 = load i32, ptr %36, align 8, !tbaa !25
  %38 = zext i32 %37 to i64
  %39 = getelementptr inbounds nuw %union.ev_val, ptr %34, i64 %38
  %40 = load ptr, ptr %6, align 8, !tbaa !26
  call void @llvm.memcpy.p0.p0.i64(ptr align 8 %39, ptr align 8 %40, i64 8, i1 false), !tbaa.struct !28
  %41 = load ptr, ptr %5, align 8, !tbaa !21
  %42 = getelementptr inbounds nuw %struct.cli_event, ptr %41, i32 0, i32 2
  %43 = load i32, ptr %42, align 8, !tbaa !25
  %44 = add i32 %43, 1
  store i32 %44, ptr %42, align 8, !tbaa !25
  store i32 0, ptr %9, align 4
  br label %45

45:                                               ; preds = %28, %25
  call void @llvm.lifetime.end.p0(i64 4, ptr %8) #8
  call void @llvm.lifetime.end.p0(i64 8, ptr %7) #8
  %46 = load i32, ptr %9, align 4
  switch i32 %46, label %48 [
    i32 0, label %47
    i32 1, label %47
  ]

47:                                               ; preds = %45, %45
  ret void

48:                                               ; preds = %45
  unreachable
}

; Function Attrs: nounwind uwtable
define internal void @event_string(ptr noundef %0, ptr noundef %1, ptr noundef %2) #0 {
  %4 = alloca ptr, align 8
  %5 = alloca ptr, align 8
  %6 = alloca ptr, align 8
  %7 = alloca %union.ev_val, align 8
  store ptr %0, ptr %4, align 8, !tbaa !7
  store ptr %1, ptr %5, align 8, !tbaa !21
  store ptr %2, ptr %6, align 8, !tbaa !20
  %8 = load ptr, ptr %6, align 8, !tbaa !20
  %9 = icmp ne ptr %8, null
  br i1 %9, label %11, label %10

10:                                               ; preds = %3
  store ptr @.str.19, ptr %6, align 8, !tbaa !20
  br label %11

11:                                               ; preds = %10, %3
  %12 = load ptr, ptr %5, align 8, !tbaa !21
  %13 = getelementptr inbounds nuw %struct.cli_event, ptr %12, i32 0, i32 3
  %14 = load i16, ptr %13, align 4
  %15 = lshr i16 %14, 8
  %16 = zext i16 %15 to i32
  switch i32 %16, label %29 [
    i32 0, label %17
    i32 1, label %25
  ]

17:                                               ; preds = %11
  %18 = load ptr, ptr %6, align 8, !tbaa !20
  %19 = load ptr, ptr %5, align 8, !tbaa !21
  %20 = getelementptr inbounds nuw %struct.cli_event, ptr %19, i32 0, i32 1
  store ptr %18, ptr %20, align 8, !tbaa !23
  %21 = load ptr, ptr %5, align 8, !tbaa !21
  %22 = getelementptr inbounds nuw %struct.cli_event, ptr %21, i32 0, i32 2
  %23 = load i32, ptr %22, align 8, !tbaa !25
  %24 = add i32 %23, 1
  store i32 %24, ptr %22, align 8, !tbaa !25
  br label %30

25:                                               ; preds = %11
  call void @llvm.lifetime.start.p0(i64 8, ptr %7) #8
  %26 = load ptr, ptr %6, align 8, !tbaa !20
  store ptr %26, ptr %7, align 8, !tbaa !23
  %27 = load ptr, ptr %4, align 8, !tbaa !7
  %28 = load ptr, ptr %5, align 8, !tbaa !21
  call void @ev_chain(ptr noundef %27, ptr noundef %28, ptr noundef %7)
  call void @llvm.lifetime.end.p0(i64 8, ptr %7) #8
  br label %30

29:                                               ; preds = %11
  br label %30

30:                                               ; preds = %29, %25, %17
  ret void
}

; Function Attrs: nounwind uwtable
define void @cli_event_error_str(ptr noundef %0, ptr noundef %1) #0 {
  %3 = alloca ptr, align 8
  %4 = alloca ptr, align 8
  store ptr %0, ptr %3, align 8, !tbaa !7
  store ptr %1, ptr %4, align 8, !tbaa !20
  %5 = load ptr, ptr %3, align 8, !tbaa !7
  %6 = icmp ne ptr %5, null
  br i1 %6, label %8, label %7

7:                                                ; preds = %2
  br label %14

8:                                                ; preds = %2
  %9 = load ptr, ptr %4, align 8, !tbaa !20
  call void (ptr, ...) @cli_warnmsg(ptr noundef @.str.8, ptr noundef %9)
  %10 = load ptr, ptr %3, align 8, !tbaa !7
  %11 = load ptr, ptr %3, align 8, !tbaa !7
  %12 = getelementptr inbounds nuw %struct.cli_events, ptr %11, i32 0, i32 1
  %13 = load ptr, ptr %4, align 8, !tbaa !20
  call void @event_string(ptr noundef %10, ptr noundef %12, ptr noundef %13)
  br label %14

14:                                               ; preds = %8, %7
  ret void
}

; Function Attrs: inlinehint nounwind uwtable
define internal ptr @get_event(ptr noundef %0, i32 noundef %1) #5 {
  %3 = alloca ptr, align 8
  %4 = alloca ptr, align 8
  %5 = alloca i32, align 4
  store ptr %0, ptr %4, align 8, !tbaa !7
  store i32 %1, ptr %5, align 4, !tbaa !3
  %6 = load ptr, ptr %4, align 8, !tbaa !7
  %7 = icmp ne ptr %6, null
  br i1 %7, label %9, label %8

8:                                                ; preds = %2
  store ptr null, ptr %3, align 8
  br label %24

9:                                                ; preds = %2
  %10 = load i32, ptr %5, align 4, !tbaa !3
  %11 = load ptr, ptr %4, align 8, !tbaa !7
  %12 = getelementptr inbounds nuw %struct.cli_events, ptr %11, i32 0, i32 3
  %13 = load i32, ptr %12, align 8, !tbaa !10
  %14 = icmp uge i32 %10, %13
  br i1 %14, label %15, label %17

15:                                               ; preds = %9
  %16 = load ptr, ptr %4, align 8, !tbaa !7
  call void @cli_event_error_str(ptr noundef %16, ptr noundef @.str.18)
  store ptr null, ptr %3, align 8
  br label %24

17:                                               ; preds = %9
  %18 = load ptr, ptr %4, align 8, !tbaa !7
  %19 = getelementptr inbounds nuw %struct.cli_events, ptr %18, i32 0, i32 0
  %20 = load ptr, ptr %19, align 8, !tbaa !16
  %21 = load i32, ptr %5, align 4, !tbaa !3
  %22 = zext i32 %21 to i64
  %23 = getelementptr inbounds nuw %struct.cli_event, ptr %20, i64 %22
  store ptr %23, ptr %3, align 8
  br label %24

24:                                               ; preds = %17, %15, %8
  %25 = load ptr, ptr %3, align 8
  ret ptr %25
}

; Function Attrs: nounwind uwtable
define void @cli_event_get(ptr noundef %0, i32 noundef %1, ptr noundef %2, ptr noundef %3) #0 {
  %5 = alloca ptr, align 8
  %6 = alloca i32, align 4
  %7 = alloca ptr, align 8
  %8 = alloca ptr, align 8
  %9 = alloca ptr, align 8
  %10 = alloca i32, align 4
  store ptr %0, ptr %5, align 8, !tbaa !7
  store i32 %1, ptr %6, align 4, !tbaa !3
  store ptr %2, ptr %7, align 8, !tbaa !26
  store ptr %3, ptr %8, align 8, !tbaa !33
  call void @llvm.lifetime.start.p0(i64 8, ptr %9) #8
  %11 = load ptr, ptr %5, align 8, !tbaa !7
  %12 = load i32, ptr %6, align 4, !tbaa !3
  %13 = call ptr @get_event(ptr noundef %11, i32 noundef %12)
  store ptr %13, ptr %9, align 8, !tbaa !21
  %14 = load ptr, ptr %9, align 8, !tbaa !21
  %15 = icmp ne ptr %14, null
  br i1 %15, label %17, label %16

16:                                               ; preds = %4
  store i32 1, ptr %10, align 4
  br label %25

17:                                               ; preds = %4
  %18 = load ptr, ptr %7, align 8, !tbaa !26
  %19 = load ptr, ptr %9, align 8, !tbaa !21
  %20 = getelementptr inbounds nuw %struct.cli_event, ptr %19, i32 0, i32 1
  call void @llvm.memcpy.p0.p0.i64(ptr align 8 %18, ptr align 8 %20, i64 8, i1 false)
  %21 = load ptr, ptr %9, align 8, !tbaa !21
  %22 = getelementptr inbounds nuw %struct.cli_event, ptr %21, i32 0, i32 2
  %23 = load i32, ptr %22, align 8, !tbaa !25
  %24 = load ptr, ptr %8, align 8, !tbaa !33
  store i32 %23, ptr %24, align 4, !tbaa !3
  store i32 0, ptr %10, align 4
  br label %25

25:                                               ; preds = %17, %16
  call void @llvm.lifetime.end.p0(i64 8, ptr %9) #8
  %26 = load i32, ptr %10, align 4
  switch i32 %26, label %28 [
    i32 0, label %27
    i32 1, label %27
  ]

27:                                               ; preds = %25, %25
  ret void

28:                                               ; preds = %25
  unreachable
}