; Function Attrs: nounwind uwtable
define void @cli_event_get(ptr noundef %0, i32 noundef %1, ptr noundef writeonly captures(none) %2, ptr noundef writeonly captures(none) %3) local_unnamed_addr #5 {
  %.not.i = icmp eq ptr %0, null
  br i1 %.not.i, label %get_event.exit.thread, label %5

5:                                                ; preds = %4
  %6 = getelementptr inbounds nuw i8, ptr %0, i64 40
  %7 = load i32, ptr %6, align 8, !tbaa !3
  %.not8.i = icmp ult i32 %1, %7
  br i1 %.not8.i, label %get_event.exit, label %8

8:                                                ; preds = %5
  tail call void (ptr, ...) @cli_warnmsg(ptr noundef nonnull @.str.8, ptr noundef nonnull @.str.18) #14
  %9 = getelementptr inbounds nuw i8, ptr %0, i64 28
  %10 = load i16, ptr %9, align 4
  %11 = lshr i16 %10, 8
  %trunc.i.i.i = trunc nuw i16 %11 to i8
  switch i8 %trunc.i.i.i, label %get_event.exit.thread [
    i8 0, label %12
    i8 1, label %17
  ]

12:                                               ; preds = %8
  %13 = getelementptr inbounds nuw i8, ptr %0, i64 16
  store ptr @.str.18, ptr %13, align 8, !tbaa !17
  %14 = getelementptr inbounds nuw i8, ptr %0, i64 24
  %15 = load i32, ptr %14, align 8, !tbaa !18
  %16 = add i32 %15, 1
  store i32 %16, ptr %14, align 8, !tbaa !18
  br label %get_event.exit.thread

17:                                               ; preds = %8
  %18 = getelementptr inbounds nuw i8, ptr %0, i64 24
  %19 = load i32, ptr %18, align 8, !tbaa !18
  %20 = shl i32 %19, 3
  %21 = add i32 %20, 8
  %22 = getelementptr inbounds nuw i8, ptr %0, i64 16
  %23 = load ptr, ptr %22, align 8, !tbaa !17
  %24 = zext i32 %21 to i64
  %25 = tail call ptr @cli_safer_realloc(ptr noundef %23, i64 noundef %24) #14
  %.not.i.i.i.i = icmp eq ptr %25, null
  br i1 %.not.i.i.i.i, label %26, label %34

26:                                               ; preds = %17
  %27 = getelementptr inbounds nuw i8, ptr %0, i64 32
  %28 = load i64, ptr %27, align 8, !tbaa !15
  %29 = add i64 %28, %24
  store i64 %29, ptr %27, align 8, !tbaa !15
  %30 = getelementptr inbounds nuw i8, ptr %0, i64 44
  %31 = load i32, ptr %30, align 4, !tbaa !16
  %32 = add i32 %31, 1
  store i32 %32, ptr %30, align 4, !tbaa !16
  %.not6.i.i.i.i.i = icmp eq i32 %21, 0
  br i1 %.not6.i.i.i.i.i, label %get_event.exit.thread, label %33

33:                                               ; preds = %26
  tail call void (ptr, ...) @cli_errmsg(ptr noundef nonnull @.str.1, i32 noundef %21) #14
  br label %get_event.exit.thread

34:                                               ; preds = %17
  store ptr %25, ptr %22, align 8, !tbaa !17
  %35 = load i32, ptr %18, align 8, !tbaa !18
  %36 = zext i32 %35 to i64
  %37 = getelementptr inbounds nuw %union.ev_val, ptr %25, i64 %36
  store i64 ptrtoint (ptr @.str.18 to i64), ptr %37, align 8, !tbaa !17
  %38 = load i32, ptr %18, align 8, !tbaa !18
  %39 = add i32 %38, 1
  store i32 %39, ptr %18, align 8, !tbaa !18
  br label %get_event.exit.thread

get_event.exit:                                   ; preds = %5
  %40 = load ptr, ptr %0, align 8, !tbaa !13
  %.not = icmp eq ptr %40, null
  br i1 %.not, label %get_event.exit.thread, label %41

41:                                               ; preds = %get_event.exit
  %42 = zext i32 %1 to i64
  %43 = getelementptr inbounds nuw %struct.cli_event, ptr %40, i64 %42
  %44 = getelementptr inbounds nuw i8, ptr %43, i64 8
  %45 = load i64, ptr %44, align 8
  store i64 %45, ptr %2, align 8
  %46 = getelementptr inbounds nuw i8, ptr %43, i64 16
  %47 = load i32, ptr %46, align 8, !tbaa !18
  store i32 %47, ptr %3, align 4, !tbaa !23
  br label %get_event.exit.thread

get_event.exit.thread:                            ; preds = %34, %33, %26, %12, %8, %4, %get_event.exit, %41
  ret void
}